; Function Attrs: nounwind uwtable
define internal fastcc void @verifyconnect(i32 noundef %0, ptr noundef writeonly %1) unnamed_addr #2 {
  %3 = alloca i32, align 4
  %4 = alloca i32, align 4
  call void @llvm.lifetime.start.p0(i64 4, ptr nonnull %3) #13
  store i32 0, ptr %3, align 4, !tbaa !87
  call void @llvm.lifetime.start.p0(i64 4, ptr nonnull %4) #13
  store i32 4, ptr %4, align 4, !tbaa !87
  %5 = call i32 @getsockopt(i32 noundef %0, i32 noundef 1, i32 noundef 4, ptr noundef nonnull %3, ptr noundef nonnull %4) #13
  %.not = icmp eq i32 %5, 0
  br i1 %.not, label %._crit_edge, label %6

6:                                                ; preds = %2
  %7 = tail call ptr @__errno_location() #15
  br label %._crit_edge

._crit_edge:                                      ; preds = %2, %6
  %.sink = phi ptr [ %7, %6 ], [ %3, %2 ]
  %.not5 = icmp eq ptr %1, null
  br i1 %.not5, label %9, label %8

8:                                                ; preds = %._crit_edge
  %.pre = load i32, ptr %.sink, align 4, !tbaa !87
  store i32 %.pre, ptr %1, align 4, !tbaa !87
  br label %9

9:                                                ; preds = %8, %._crit_edge
  call void @llvm.lifetime.end.p0(i64 4, ptr nonnull %4) #13
  call void @llvm.lifetime.end.p0(i64 4, ptr nonnull %3) #13
  ret void
}